target datalayout = "e-m:e-p270:32:32-p271:32:32-p272:64:64-i64:64-i128:128-f80:128-n8:16:32:64-S128"
target triple = "x86_64-pc-linux-gnu"

@s_Truths6 = internal global [6 x i64] [i64 -6148914691236517206, i64 -3689348814741910324, i64 -1085102592571150096, i64 -71777214294589696, i64 -281470681808896, i64 -4294967296], align 16

; Function Attrs: inlinehint nounwind uwtable
define internal i32 @Abc_TtWordNum(i32 noundef %0) #2 {
  %2 = alloca i32, align 4
  store i32 %0, ptr %2, align 4, !tbaa !8
  %3 = load i32, ptr %2, align 4, !tbaa !8
  %4 = icmp sle i32 %3, 6
  br i1 %4, label %5, label %6

5:                                                ; preds = %1
  br label %10

6:                                                ; preds = %1
  %7 = load i32, ptr %2, align 4, !tbaa !8
  %8 = sub nsw i32 %7, 6
  %9 = shl i32 1, %8
  br label %10

10:                                               ; preds = %6, %5
  %11 = phi i32 [ 1, %5 ], [ %9, %6 ]
  ret i32 %11
}

; Function Attrs: inlinehint nounwind uwtable
define internal void @Abc_TtFlip(ptr noundef %0, i32 noundef %1, i32 noundef %2) #2 {
  %4 = alloca ptr, align 8
  %5 = alloca i32, align 4
  %6 = alloca i32, align 4
  %7 = alloca i32, align 4
  %8 = alloca i32, align 4
  %9 = alloca ptr, align 8
  %10 = alloca i32, align 4
  %11 = alloca i32, align 4
  %12 = alloca i64, align 8
  store ptr %0, ptr %4, align 8, !tbaa !3
  store i32 %1, ptr %5, align 4, !tbaa !8
  store i32 %2, ptr %6, align 4, !tbaa !8
  %13 = load i32, ptr %5, align 4, !tbaa !8
  %14 = icmp eq i32 %13, 1
  br i1 %14, label %15, label %43

15:                                               ; preds = %3
  %16 = load ptr, ptr %4, align 8, !tbaa !3
  %17 = getelementptr inbounds i64, ptr %16, i64 0
  %18 = load i64, ptr %17, align 8, !tbaa !10
  %19 = load i32, ptr %6, align 4, !tbaa !8
  %20 = shl i32 1, %19
  %21 = zext i32 %20 to i64
  %22 = shl i64 %18, %21
  %23 = load i32, ptr %6, align 4, !tbaa !8
  %24 = sext i32 %23 to i64
  %25 = getelementptr inbounds [6 x i64], ptr @s_Truths6, i64 0, i64 %24
  %26 = load i64, ptr %25, align 8, !tbaa !10
  %27 = and i64 %22, %26
  %28 = load ptr, ptr %4, align 8, !tbaa !3
  %29 = getelementptr inbounds i64, ptr %28, i64 0
  %30 = load i64, ptr %29, align 8, !tbaa !10
  %31 = load i32, ptr %6, align 4, !tbaa !8
  %32 = sext i32 %31 to i64
  %33 = getelementptr inbounds [6 x i64], ptr @s_Truths6, i64 0, i64 %32
  %34 = load i64, ptr %33, align 8, !tbaa !10
  %35 = and i64 %30, %34
  %36 = load i32, ptr %6, align 4, !tbaa !8
  %37 = shl i32 1, %36
  %38 = zext i32 %37 to i64
  %39 = lshr i64 %35, %38
  %40 = or i64 %27, %39
  %41 = load ptr, ptr %4, align 8, !tbaa !3
  %42 = getelementptr inbounds i64, ptr %41, i64 0
  store i64 %40, ptr %42, align 8, !tbaa !10
  br label %141

43:                                               ; preds = %3
  %44 = load i32, ptr %6, align 4, !tbaa !8
  %45 = icmp sle i32 %44, 5
  br i1 %45, label %46, label %89

46:                                               ; preds = %43
  call void @llvm.lifetime.start.p0(i64 4, ptr %7) #12
  call void @llvm.lifetime.start.p0(i64 4, ptr %8) #12
  %47 = load i32, ptr %6, align 4, !tbaa !8
  %48 = shl i32 1, %47
  store i32 %48, ptr %8, align 4, !tbaa !8
  store i32 0, ptr %7, align 4, !tbaa !8
  br label %49

49:                                               ; preds = %85, %46
  %50 = load i32, ptr %7, align 4, !tbaa !8
  %51 = load i32, ptr %5, align 4, !tbaa !8
  %52 = icmp slt i32 %50, %51
  br i1 %52, label %53, label %88

53:                                               ; preds = %49
  %54 = load ptr, ptr %4, align 8, !tbaa !3
  %55 = load i32, ptr %7, align 4, !tbaa !8
  %56 = sext i32 %55 to i64
  %57 = getelementptr inbounds i64, ptr %54, i64 %56
  %58 = load i64, ptr %57, align 8, !tbaa !10
  %59 = load i32, ptr %8, align 4, !tbaa !8
  %60 = zext i32 %59 to i64
  %61 = shl i64 %58, %60
  %62 = load i32, ptr %6, align 4, !tbaa !8
  %63 = sext i32 %62 to i64
  %64 = getelementptr inbounds [6 x i64], ptr @s_Truths6, i64 0, i64 %63
  %65 = load i64, ptr %64, align 8, !tbaa !10
  %66 = and i64 %61, %65
  %67 = load ptr, ptr %4, align 8, !tbaa !3
  %68 = load i32, ptr %7, align 4, !tbaa !8
  %69 = sext i32 %68 to i64
  %70 = getelementptr inbounds i64, ptr %67, i64 %69
  %71 = load i64, ptr %70, align 8, !tbaa !10
  %72 = load i32, ptr %6, align 4, !tbaa !8
  %73 = sext i32 %72 to i64
  %74 = getelementptr inbounds [6 x i64], ptr @s_Truths6, i64 0, i64 %73
  %75 = load i64, ptr %74, align 8, !tbaa !10
  %76 = and i64 %71, %75
  %77 = load i32, ptr %8, align 4, !tbaa !8
  %78 = zext i32 %77 to i64
  %79 = lshr i64 %76, %78
  %80 = or i64 %66, %79
  %81 = load ptr, ptr %4, align 8, !tbaa !3
  %82 = load i32, ptr %7, align 4, !tbaa !8
  %83 = sext i32 %82 to i64
  %84 = getelementptr inbounds i64, ptr %81, i64 %83
  store i64 %80, ptr %84, align 8, !tbaa !10
  br label %85

85:                                               ; preds = %53
  %86 = load i32, ptr %7, align 4, !tbaa !8
  %87 = add nsw i32 %86, 1
  store i32 %87, ptr %7, align 4, !tbaa !8
  br label %49, !llvm.loop !42

88:                                               ; preds = %49
  call void @llvm.lifetime.end.p0(i64 4, ptr %8) #12
  call void @llvm.lifetime.end.p0(i64 4, ptr %7) #12
  br label %140

89:                                               ; preds = %43
  call void @llvm.lifetime.start.p0(i64 8, ptr %9) #12
  %90 = load ptr, ptr %4, align 8, !tbaa !3
  %91 = load i32, ptr %5, align 4, !tbaa !8
  %92 = sext i32 %91 to i64
  %93 = getelementptr inbounds i64, ptr %90, i64 %92
  store ptr %93, ptr %9, align 8, !tbaa !3
  call void @llvm.lifetime.start.p0(i64 4, ptr %10) #12
  call void @llvm.lifetime.start.p0(i64 4, ptr %11) #12
  %94 = load i32, ptr %6, align 4, !tbaa !8
  %95 = call i32 @Abc_TtWordNum(i32 noundef %94)
  store i32 %95, ptr %11, align 4, !tbaa !8
  br label %96

96:                                               ; preds = %133, %89
  %97 = load ptr, ptr %4, align 8, !tbaa !3
  %98 = load ptr, ptr %9, align 8, !tbaa !3
  %99 = icmp ult ptr %97, %98
  br i1 %99, label %100, label %139

100:                                              ; preds = %96
  store i32 0, ptr %10, align 4, !tbaa !8
  br label %101

101:                                              ; preds = %129, %100
  %102 = load i32, ptr %10, align 4, !tbaa !8
  %103 = load i32, ptr %11, align 4, !tbaa !8
  %104 = icmp slt i32 %102, %103
  br i1 %104, label %105, label %132

105:                                              ; preds = %101
  call void @llvm.lifetime.start.p0(i64 8, ptr %12) #12
  %106 = load ptr, ptr %4, align 8, !tbaa !3
  %107 = load i32, ptr %10, align 4, !tbaa !8
  %108 = sext i32 %107 to i64
  %109 = getelementptr inbounds i64, ptr %106, i64 %108
  %110 = load i64, ptr %109, align 8, !tbaa !10
  store i64 %110, ptr %12, align 8, !tbaa !10
  %111 = load ptr, ptr %4, align 8, !tbaa !3
  %112 = load i32, ptr %10, align 4, !tbaa !8
  %113 = load i32, ptr %11, align 4, !tbaa !8
  %114 = add nsw i32 %112, %113
  %115 = sext i32 %114 to i64
  %116 = getelementptr inbounds i64, ptr %111, i64 %115
  %117 = load i64, ptr %116, align 8, !tbaa !10
  %118 = load ptr, ptr %4, align 8, !tbaa !3
  %119 = load i32, ptr %10, align 4, !tbaa !8
  %120 = sext i32 %119 to i64
  %121 = getelementptr inbounds i64, ptr %118, i64 %120
  store i64 %117, ptr %121, align 8, !tbaa !10
  %122 = load i64, ptr %12, align 8, !tbaa !10
  %123 = load ptr, ptr %4, align 8, !tbaa !3
  %124 = load i32, ptr %10, align 4, !tbaa !8
  %125 = load i32, ptr %11, align 4, !tbaa !8
  %126 = add nsw i32 %124, %125
  %127 = sext i32 %126 to i64
  %128 = getelementptr inbounds i64, ptr %123, i64 %127
  store i64 %122, ptr %128, align 8, !tbaa !10
  call void @llvm.lifetime.end.p0(i64 8, ptr %12) #12
  br label %129

129:                                              ; preds = %105
  %130 = load i32, ptr %10, align 4, !tbaa !8
  %131 = add nsw i32 %130, 1
  store i32 %131, ptr %10, align 4, !tbaa !8
  br label %101, !llvm.loop !43

132:                                              ; preds = %101
  br label %133

133:                                              ; preds = %132
  %134 = load i32, ptr %11, align 4, !tbaa !8
  %135 = mul nsw i32 2, %134
  %136 = load ptr, ptr %4, align 8, !tbaa !3
  %137 = sext i32 %135 to i64
  %138 = getelementptr inbounds i64, ptr %136, i64 %137
  store ptr %138, ptr %4, align 8, !tbaa !3
  br label %96, !llvm.loop !44

139:                                              ; preds = %96
  call void @llvm.lifetime.end.p0(i64 4, ptr %11) #12
  call void @llvm.lifetime.end.p0(i64 4, ptr %10) #12
  call void @llvm.lifetime.end.p0(i64 8, ptr %9) #12
  br label %140

140:                                              ; preds = %139, %88
  br label %141

141:                                              ; preds = %140, %15
  ret void
}