; Function Attrs: inlinehint nofree norecurse nosync nounwind memory(argmem: readwrite) uwtable
define internal fastcc void @Abc_TtFlip(ptr noundef %0, i32 noundef %1, i32 noundef %2) unnamed_addr #2 {
  %4 = icmp eq i32 %1, 1
  br i1 %4, label %5, label %17

5:                                                ; preds = %3
  %6 = load i64, ptr %0, align 8, !tbaa !3
  %7 = shl nuw i32 1, %2
  %8 = zext i32 %7 to i64
  %9 = shl i64 %6, %8
  %10 = sext i32 %2 to i64
  %11 = getelementptr inbounds [6 x i64], ptr @s_Truths6, i64 0, i64 %10
  %12 = load i64, ptr %11, align 8, !tbaa !3
  %13 = and i64 %9, %12
  %14 = and i64 %12, %6
  %15 = lshr i64 %14, %8
  %16 = or i64 %15, %13
  store i64 %16, ptr %0, align 8, !tbaa !3
  br label %.loopexit

17:                                               ; preds = %3
  %18 = icmp slt i32 %2, 6
  br i1 %18, label %19, label %34

19:                                               ; preds = %17
  %20 = icmp sgt i32 %1, 0
  br i1 %20, label %.lr.ph, label %.loopexit

.lr.ph:                                           ; preds = %19
  %21 = shl nuw nsw i32 1, %2
  %22 = zext nneg i32 %21 to i64
  %23 = sext i32 %2 to i64
  %24 = getelementptr inbounds [6 x i64], ptr @s_Truths6, i64 0, i64 %23
  %25 = load i64, ptr %24, align 8, !tbaa !3
  %wide.trip.count59 = zext nneg i32 %1 to i64
  br label %26

26:                                               ; preds = %.lr.ph, %26
  %indvars.iv56 = phi i64 [ 0, %.lr.ph ], [ %indvars.iv.next57, %26 ]
  %27 = getelementptr inbounds nuw i64, ptr %0, i64 %indvars.iv56
  %28 = load i64, ptr %27, align 8, !tbaa !3
  %29 = shl i64 %28, %22
  %30 = and i64 %29, %25
  %31 = and i64 %25, %28
  %32 = lshr i64 %31, %22
  %33 = or i64 %32, %30
  store i64 %33, ptr %27, align 8, !tbaa !3
  %indvars.iv.next57 = add nuw nsw i64 %indvars.iv56, 1
  %exitcond60.not = icmp eq i64 %indvars.iv.next57, %wide.trip.count59
  br i1 %exitcond60.not, label %.loopexit, label %26, !llvm.loop !36

34:                                               ; preds = %17
  %35 = sext i32 %1 to i64
  %36 = getelementptr inbounds i64, ptr %0, i64 %35
  %37 = add nsw i32 %2, -6
  %38 = shl nuw i32 1, %37
  %39 = icmp sgt i32 %1, 0
  br i1 %39, label %.preheader.lr.ph, label %.loopexit

.preheader.lr.ph:                                 ; preds = %34
  %.not = icmp eq i32 %37, 31
  %40 = shl i32 2, %37
  %41 = sext i32 %40 to i64
  br i1 %.not, label %.loopexit, label %.preheader.us.preheader

.preheader.us.preheader:                          ; preds = %.preheader.lr.ph
  %42 = sext i32 %38 to i64
  %smax = tail call i32 @llvm.smax.i32(i32 %38, i32 1)
  %wide.trip.count = zext nneg i32 %smax to i64
  br label %.preheader.us

.preheader.us:                                    ; preds = %.preheader.us.preheader, %._crit_edge.us
  %.051.us = phi ptr [ %47, %._crit_edge.us ], [ %0, %.preheader.us.preheader ]
  %invariant.gep = getelementptr i64, ptr %.051.us, i64 %42
  br label %43

43:                                               ; preds = %.preheader.us, %43
  %indvars.iv = phi i64 [ 0, %.preheader.us ], [ %indvars.iv.next, %43 ]
  %44 = getelementptr inbounds nuw i64, ptr %.051.us, i64 %indvars.iv
  %45 = load i64, ptr %44, align 8, !tbaa !3
  %gep = getelementptr i64, ptr %invariant.gep, i64 %indvars.iv
  %46 = load i64, ptr %gep, align 8, !tbaa !3
  store i64 %46, ptr %44, align 8, !tbaa !3
  store i64 %45, ptr %gep, align 8, !tbaa !3
  %indvars.iv.next = add nuw nsw i64 %indvars.iv, 1
  %exitcond.not = icmp eq i64 %indvars.iv.next, %wide.trip.count
  br i1 %exitcond.not, label %._crit_edge.us, label %43, !llvm.loop !37

._crit_edge.us:                                   ; preds = %43
  %47 = getelementptr inbounds i64, ptr %.051.us, i64 %41
  %48 = icmp ult ptr %47, %36
  br i1 %48, label %.preheader.us, label %.loopexit, !llvm.loop !38

.loopexit:                                        ; preds = %._crit_edge.us, %26, %.preheader.lr.ph, %34, %19, %5
  ret void
}